Certificate:
    Data:
        Version: 3 (0x2)
        Serial Number: 3 (0x3)
        Signature Algorithm: sha256WithRSAEncryption
        Issuer: C=VN, ST=HCM, L=TANBINH, O=damphat.com, OU=vpn, CN=vpn.damphat.com/name=vpn.damphat.com/emailAddress=vpn@damphat.com
        Validity
            Not Before: Jul 14 23:44:29 2013 GMT
            Not After : Jul 12 23:44:29 2023 GMT
        Subject: C=VN, ST=HCM, L=TANBINH, O=damphat.com, OU=vpn, CN=vpn.damphat.com/name=client2/emailAddress=client2@damphat.com
        Subject Public Key Info:
            Public Key Algorithm: rsaEncryption
                Public-Key: (1024 bit)
                Modulus:
                    00:a4:16:9f:fb:f8:cf:c3:a9:c9:74:6e:9c:da:d6:
                    38:bd:a8:10:a9:27:e9:2e:fe:34:64:f9:f0:f7:78:
                    7f:a6:c0:53:f0:58:94:41:98:42:b7:37:79:3e:ce:
                    01:1e:04:8c:70:f4:ff:d2:c4:5b:43:32:50:3d:e8:
                    ce:b9:15:68:6a:ee:b4:0c:1c:41:1c:bc:d6:c1:ec:
                    d9:4d:d8:ac:b2:29:d6:c8:da:b2:a7:af:5d:f8:e2:
                    5e:cd:f9:f0:3d:37:b9:30:e9:45:a0:76:26:93:35:
                    2b:e3:13:2b:fe:25:3a:3d:9b:9a:63:31:7b:3f:bd:
                    1d:a6:27:5d:a3:c4:64:01:99
                Exponent: 65537 (0x10001)
        X509v3 extensions:
            X509v3 Basic Constraints: 
                CA:FALSE
            Netscape Comment: 
                Easy-RSA Generated Certificate
            X509v3 Subject Key Identifier: 
                19:B2:EB:14:F2:4C:43:36:F2:9C:59:54:76:FA:7F:78:DB:F2:BE:1C
            X509v3 Authority Key Identifier: 
                keyid:70:E8:84:BE:C8:64:A3:A2:D1:EE:F1:11:D6:78:FF:0B:F6:08:46:E1
                DirName:/C=VN/ST=HCM/L=TANBINH/O=damphat.com/OU=vpn/CN=vpn.damphat.com/name=vpn.damphat.com/emailAddress=vpn@damphat.com
                serial:F9:12:D7:B2:C6:DD:75:BB

            X509v3 Extended Key Usage: 
                TLS Web Client Authentication
            X509v3 Key Usage: 
                Digital Signature
    Signature Algorithm: sha256WithRSAEncryption
        07:74:1f:b1:30:c9:25:0f:41:b7:cb:02:ec:16:0b:79:04:1d:
        8c:91:26:bf:2c:72:8c:fb:43:cc:46:5c:78:25:9a:a8:32:f1:
        eb:31:a8:03:be:d6:b2:ec:a0:31:a8:b3:63:d0:bd:af:32:2f:
        93:08:6b:1e:97:fb:13:6a:49:08:6a:23:8a:c0:13:27:34:e6:
        d3:06:47:96:db:55:66:bd:96:5e:a1:05:f0:22:65:fd:c5:e3:
        c6:18:c2:cc:a9:e7:14:6e:ba:21:2e:60:f3:d5:28:2a:3b:00:
        73:4d:18:27:6c:15:aa:81:07:04:32:5b:06:28:a6:40:f4:78:
        3c:3a
-----BEGIN CERTIFICATE-----
MIIEHDCCA4WgAwIBAgIBAzANBgkqhkiG9w0BAQsFADCBpTELMAkGA1UEBhMCVk4x
DDAKBgNVBAgTA0hDTTEQMA4GA1UEBxMHVEFOQklOSDEUMBIGA1UEChMLZGFtcGhh
dC5jb20xDDAKBgNVBAsTA3ZwbjEYMBYGA1UEAxMPdnBuLmRhbXBoYXQuY29tMRgw
FgYDVQQpEw92cG4uZGFtcGhhdC5jb20xHjAcBgkqhkiG9w0BCQEWD3ZwbkBkYW1w
aGF0LmNvbTAeFw0xMzA3MTQyMzQ0MjlaFw0yMzA3MTIyMzQ0MjlaMIGhMQswCQYD
VQQGEwJWTjEMMAoGA1UECBMDSENNMRAwDgYDVQQHEwdUQU5CSU5IMRQwEgYDVQQK
EwtkYW1waGF0LmNvbTEMMAoGA1UECxMDdnBuMRgwFgYDVQQDEw92cG4uZGFtcGhh
dC5jb20xEDAOBgNVBCkTB2NsaWVudDIxIjAgBgkqhkiG9w0BCQEWE2NsaWVudDJA
ZGFtcGhhdC5jb20wgZ8wDQYJKoZIhvcNAQEBBQADgY0AMIGJAoGBAKQWn/v4z8Op
yXRunNrWOL2oEKkn6S7+NGT58Pd4f6bAU/BYlEGYQrc3eT7OAR4EjHD0/9LEW0My
UD3ozrkVaGrutAwcQRy81sHs2U3YrLIp1sjasqevXfjiXs358D03uTDpRaB2JpM1
K+MTK/4lOj2bmmMxez+9HaYnXaPEZAGZAgMBAAGjggFcMIIBWDAJBgNVHRMEAjAA
MC0GCWCGSAGG+EIBDQQgFh5FYXN5LVJTQSBHZW5lcmF0ZWQgQ2VydGlmaWNhdGUw
HQYDVR0OBBYEFBmy6xTyTEM28pxZVHb6f3jb8r4cMIHaBgNVHSMEgdIwgc+AFHDo
hL7IZKOi0e7xEdZ4/wv2CEbhoYGrpIGoMIGlMQswCQYDVQQGEwJWTjEMMAoGA1UE
CBMDSENNMRAwDgYDVQQHEwdUQU5CSU5IMRQwEgYDVQQKEwtkYW1waGF0LmNvbTEM
MAoGA1UECxMDdnBuMRgwFgYDVQQDEw92cG4uZGFtcGhhdC5jb20xGDAWBgNVBCkT
D3Zwbi5kYW1waGF0LmNvbTEeMBwGCSqGSIb3DQEJARYPdnBuQGRhbXBoYXQuY29t
ggkA+RLXssbddbswEwYDVR0lBAwwCgYIKwYBBQUHAwIwCwYDVR0PBAQDAgeAMA0G
CSqGSIb3DQEBCwUAA4GBAAd0H7EwySUPQbfLAuwWC3kEHYyRJr8scoz7Q8xGXHgl
mqgy8esxqAO+1rLsoDGos2PQva8yL5MIax6X+xNqSQhqI4rAEyc05tMGR5bbVWa9
ll6hBfAiZf3F48YYwsyp5xRuuiEuYPPVKCo7AHNNGCdsFaqBBwQyWwYopkD0eDw6
-----END CERTIFICATE-----
