Certificate:
    Data:
        Version: 3 (0x2)
        Serial Number: 1 (0x1)
        Signature Algorithm: sha256WithRSAEncryption
        Issuer: C=VN, ST=HCM, L=TANBINH, O=damphat.com, OU=vpn, CN=vpn.damphat.com/name=vpn.damphat.com/emailAddress=vpn@damphat.com
        Validity
            Not Before: Jul 14 23:40:31 2013 GMT
            Not After : Jul 12 23:40:31 2023 GMT
        Subject: C=VN, ST=HCM, L=TANBINH, O=damphat.com, OU=vpn, CN=vpn.damphat.com/name=server/emailAddress=vpn@damphat.com
        Subject Public Key Info:
            Public Key Algorithm: rsaEncryption
                Public-Key: (1024 bit)
                Modulus:
                    00:eb:53:30:66:97:d5:5b:67:e7:f1:30:38:36:52:
                    0b:8d:2e:70:0c:ca:5d:29:16:ac:70:62:62:15:f2:
                    fa:b6:c6:5a:f3:9d:14:ab:5c:47:39:45:c3:f1:c4:
                    e5:72:56:b2:c0:f8:f3:24:58:df:3e:a5:e3:ac:ac:
                    27:1b:9e:8b:7f:4c:71:f1:df:de:3c:6a:e1:d9:98:
                    bb:1e:74:ae:f0:b1:7c:f7:a7:6e:5b:3b:ec:cb:dc:
                    00:41:4a:6b:25:86:89:12:d1:a9:96:8e:13:1a:d2:
                    f4:fd:d9:7b:21:d3:e9:12:97:cb:1c:1c:f7:b5:fe:
                    ae:de:8a:c1:8a:4e:95:54:5d
                Exponent: 65537 (0x10001)
        X509v3 extensions:
            X509v3 Basic Constraints: 
                CA:FALSE
            Netscape Cert Type: 
                SSL Server
            Netscape Comment: 
                Easy-RSA Generated Server Certificate
            X509v3 Subject Key Identifier: 
                CF:72:E8:84:E8:8D:78:4B:BA:91:5B:C2:50:29:B6:24:89:49:3A:42
            X509v3 Authority Key Identifier: 
                keyid:70:E8:84:BE:C8:64:A3:A2:D1:EE:F1:11:D6:78:FF:0B:F6:08:46:E1
                DirName:/C=VN/ST=HCM/L=TANBINH/O=damphat.com/OU=vpn/CN=vpn.damphat.com/name=vpn.damphat.com/emailAddress=vpn@damphat.com
                serial:F9:12:D7:B2:C6:DD:75:BB

            X509v3 Extended Key Usage: 
                TLS Web Server Authentication
            X509v3 Key Usage: 
                Digital Signature, Key Encipherment
    Signature Algorithm: sha256WithRSAEncryption
        66:a5:9c:43:20:d0:2f:83:78:c9:64:42:d5:f2:fa:4e:01:74:
        bd:93:3f:85:85:6b:36:59:b2:2e:3b:3d:7d:cc:24:70:06:e0:
        9b:ec:63:38:66:f7:09:aa:ec:80:74:cb:6a:23:f2:05:b4:ae:
        8e:76:1f:78:2b:85:7a:9a:3e:92:4f:c3:e5:aa:41:b4:c7:9e:
        fa:b6:6d:8d:2b:05:6e:ef:a2:aa:d3:e1:8a:b2:e4:26:14:ed:
        21:23:42:ac:2b:49:7b:5d:5a:3e:6e:60:07:07:80:6b:36:27:
        84:a1:84:d8:58:d4:05:f1:be:b7:53:aa:4c:73:f1:4e:fb:3c:
        2f:c1
-----BEGIN CERTIFICATE-----
MIIEMTCCA5qgAwIBAgIBATANBgkqhkiG9w0BAQsFADCBpTELMAkGA1UEBhMCVk4x
DDAKBgNVBAgTA0hDTTEQMA4GA1UEBxMHVEFOQklOSDEUMBIGA1UEChMLZGFtcGhh
dC5jb20xDDAKBgNVBAsTA3ZwbjEYMBYGA1UEAxMPdnBuLmRhbXBoYXQuY29tMRgw
FgYDVQQpEw92cG4uZGFtcGhhdC5jb20xHjAcBgkqhkiG9w0BCQEWD3ZwbkBkYW1w
aGF0LmNvbTAeFw0xMzA3MTQyMzQwMzFaFw0yMzA3MTIyMzQwMzFaMIGcMQswCQYD
VQQGEwJWTjEMMAoGA1UECBMDSENNMRAwDgYDVQQHEwdUQU5CSU5IMRQwEgYDVQQK
EwtkYW1waGF0LmNvbTEMMAoGA1UECxMDdnBuMRgwFgYDVQQDEw92cG4uZGFtcGhh
dC5jb20xDzANBgNVBCkTBnNlcnZlcjEeMBwGCSqGSIb3DQEJARYPdnBuQGRhbXBo
YXQuY29tMIGfMA0GCSqGSIb3DQEBAQUAA4GNADCBiQKBgQDrUzBml9VbZ+fxMDg2
UguNLnAMyl0pFqxwYmIV8vq2xlrznRSrXEc5RcPxxOVyVrLA+PMkWN8+peOsrCcb
not/THHx3948auHZmLsedK7wsXz3p25bO+zL3ABBSmslhokS0amWjhMa0vT92Xsh
0+kSl8scHPe1/q7eisGKTpVUXQIDAQABo4IBdjCCAXIwCQYDVR0TBAIwADARBglg
hkgBhvhCAQEEBAMCBkAwNAYJYIZIAYb4QgENBCcWJUVhc3ktUlNBIEdlbmVyYXRl
ZCBTZXJ2ZXIgQ2VydGlmaWNhdGUwHQYDVR0OBBYEFM9y6ITojXhLupFbwlAptiSJ
STpCMIHaBgNVHSMEgdIwgc+AFHDohL7IZKOi0e7xEdZ4/wv2CEbhoYGrpIGoMIGl
MQswCQYDVQQGEwJWTjEMMAoGA1UECBMDSENNMRAwDgYDVQQHEwdUQU5CSU5IMRQw
EgYDVQQKEwtkYW1waGF0LmNvbTEMMAoGA1UECxMDdnBuMRgwFgYDVQQDEw92cG4u
ZGFtcGhhdC5jb20xGDAWBgNVBCkTD3Zwbi5kYW1waGF0LmNvbTEeMBwGCSqGSIb3
DQEJARYPdnBuQGRhbXBoYXQuY29tggkA+RLXssbddbswEwYDVR0lBAwwCgYIKwYB
BQUHAwEwCwYDVR0PBAQDAgWgMA0GCSqGSIb3DQEBCwUAA4GBAGalnEMg0C+DeMlk
QtXy+k4BdL2TP4WFazZZsi47PX3MJHAG4JvsYzhm9wmq7IB0y2oj8gW0ro52H3gr
hXqaPpJPw+WqQbTHnvq2bY0rBW7voqrT4Yqy5CYU7SEjQqwrSXtdWj5uYAcHgGs2
J4ShhNhY1AXxvrdTqkxz8U77PC/B
-----END CERTIFICATE-----
