Certificate:
    Data:
        Version: 3 (0x2)
        Serial Number: 2 (0x2)
        Signature Algorithm: sha256WithRSAEncryption
        Issuer: C=VN, ST=HCM, L=TANBINH, O=damphat.com, OU=vpn, CN=vpn.damphat.com/name=vpn.damphat.com/emailAddress=vpn@damphat.com
        Validity
            Not Before: Jul 14 23:43:14 2013 GMT
            Not After : Jul 12 23:43:14 2023 GMT
        Subject: C=VN, ST=HCM, L=TANBINH, O=damphat.com, OU=vpn, CN=vpn.damphat.com/name=client1/emailAddress=client1@damphat.com
        Subject Public Key Info:
            Public Key Algorithm: rsaEncryption
                Public-Key: (1024 bit)
                Modulus:
                    00:c0:51:0e:bf:73:0b:09:5c:9d:dc:fa:5c:5b:24:
                    75:22:bb:95:51:f7:cd:c1:a5:64:7d:09:2f:c9:06:
                    50:de:f8:91:97:30:bf:34:0c:40:8f:da:c8:76:bb:
                    09:bd:80:ec:e5:3f:b9:c6:7f:d5:c2:6f:9e:53:f4:
                    e5:14:54:68:77:1a:80:93:5c:dc:03:99:48:0c:be:
                    b9:19:c4:02:04:10:2a:bc:0b:0a:bf:45:86:4b:e5:
                    b9:26:5f:e0:be:bb:ff:c4:b6:39:16:fb:dd:c5:a5:
                    cc:15:d0:07:86:1a:58:b0:6e:80:6e:06:7d:65:6d:
                    34:33:de:88:01:4e:4b:ae:0f
                Exponent: 65537 (0x10001)
        X509v3 extensions:
            X509v3 Basic Constraints: 
                CA:FALSE
            Netscape Comment: 
                Easy-RSA Generated Certificate
            X509v3 Subject Key Identifier: 
                70:BA:01:76:6C:98:26:13:63:B5:2D:37:A5:DF:37:67:2F:2C:C8:24
            X509v3 Authority Key Identifier: 
                keyid:70:E8:84:BE:C8:64:A3:A2:D1:EE:F1:11:D6:78:FF:0B:F6:08:46:E1
                DirName:/C=VN/ST=HCM/L=TANBINH/O=damphat.com/OU=vpn/CN=vpn.damphat.com/name=vpn.damphat.com/emailAddress=vpn@damphat.com
                serial:F9:12:D7:B2:C6:DD:75:BB

            X509v3 Extended Key Usage: 
                TLS Web Client Authentication
            X509v3 Key Usage: 
                Digital Signature
    Signature Algorithm: sha256WithRSAEncryption
        2c:87:16:1e:52:2e:46:8a:06:98:bb:d2:98:a4:0c:9c:25:0a:
        2a:d7:52:30:2a:24:5f:16:cb:9b:48:d9:fb:4d:da:81:bf:e1:
        21:50:ee:cf:5a:10:fb:83:2e:e1:7e:62:60:ad:01:7f:21:f3:
        5b:ea:80:1c:c0:bb:dc:05:90:76:9b:cb:d8:1a:19:2f:52:ba:
        2f:15:6e:01:63:65:7d:22:5e:fd:5f:ca:92:d3:14:1e:87:36:
        eb:af:f2:ed:2a:5b:9b:e4:01:11:1d:c8:0d:67:92:a3:3f:3b:
        4b:f2:d4:b4:7b:f2:60:c4:53:7e:32:c8:01:c4:78:ad:03:ab:
        f8:fe
-----BEGIN CERTIFICATE-----
MIIEHDCCA4WgAwIBAgIBAjANBgkqhkiG9w0BAQsFADCBpTELMAkGA1UEBhMCVk4x
DDAKBgNVBAgTA0hDTTEQMA4GA1UEBxMHVEFOQklOSDEUMBIGA1UEChMLZGFtcGhh
dC5jb20xDDAKBgNVBAsTA3ZwbjEYMBYGA1UEAxMPdnBuLmRhbXBoYXQuY29tMRgw
FgYDVQQpEw92cG4uZGFtcGhhdC5jb20xHjAcBgkqhkiG9w0BCQEWD3ZwbkBkYW1w
aGF0LmNvbTAeFw0xMzA3MTQyMzQzMTRaFw0yMzA3MTIyMzQzMTRaMIGhMQswCQYD
VQQGEwJWTjEMMAoGA1UECBMDSENNMRAwDgYDVQQHEwdUQU5CSU5IMRQwEgYDVQQK
EwtkYW1waGF0LmNvbTEMMAoGA1UECxMDdnBuMRgwFgYDVQQDEw92cG4uZGFtcGhh
dC5jb20xEDAOBgNVBCkTB2NsaWVudDExIjAgBgkqhkiG9w0BCQEWE2NsaWVudDFA
ZGFtcGhhdC5jb20wgZ8wDQYJKoZIhvcNAQEBBQADgY0AMIGJAoGBAMBRDr9zCwlc
ndz6XFskdSK7lVH3zcGlZH0JL8kGUN74kZcwvzQMQI/ayHa7Cb2A7OU/ucZ/1cJv
nlP05RRUaHcagJNc3AOZSAy+uRnEAgQQKrwLCr9FhkvluSZf4L67/8S2ORb73cWl
zBXQB4YaWLBugG4GfWVtNDPeiAFOS64PAgMBAAGjggFcMIIBWDAJBgNVHRMEAjAA
MC0GCWCGSAGG+EIBDQQgFh5FYXN5LVJTQSBHZW5lcmF0ZWQgQ2VydGlmaWNhdGUw
HQYDVR0OBBYEFHC6AXZsmCYTY7UtN6XfN2cvLMgkMIHaBgNVHSMEgdIwgc+AFHDo
hL7IZKOi0e7xEdZ4/wv2CEbhoYGrpIGoMIGlMQswCQYDVQQGEwJWTjEMMAoGA1UE
CBMDSENNMRAwDgYDVQQHEwdUQU5CSU5IMRQwEgYDVQQKEwtkYW1waGF0LmNvbTEM
MAoGA1UECxMDdnBuMRgwFgYDVQQDEw92cG4uZGFtcGhhdC5jb20xGDAWBgNVBCkT
D3Zwbi5kYW1waGF0LmNvbTEeMBwGCSqGSIb3DQEJARYPdnBuQGRhbXBoYXQuY29t
ggkA+RLXssbddbswEwYDVR0lBAwwCgYIKwYBBQUHAwIwCwYDVR0PBAQDAgeAMA0G
CSqGSIb3DQEBCwUAA4GBACyHFh5SLkaKBpi70pikDJwlCirXUjAqJF8Wy5tI2ftN
2oG/4SFQ7s9aEPuDLuF+YmCtAX8h81vqgBzAu9wFkHaby9gaGS9Sui8VbgFjZX0i
Xv1fypLTFB6HNuuv8u0qW5vkAREdyA1nkqM/O0vy1LR78mDEU34yyAHEeK0Dq/j+
-----END CERTIFICATE-----
